; Function Attrs: mustprogress uwtable
define hidden void @_ZN2pb10constraint15unwatch_literalERNS_16solver_interfaceEN3sat7literalE(ptr noundef nonnull align 8 dereferenceable(64) %0, ptr noundef nonnull align 8 dereferenceable(8) %1, i32 %2) local_unnamed_addr #3 align 2 {
  %4 = alloca %"class.sat::watched", align 8
  call void @llvm.lifetime.start.p0(i64 16, ptr nonnull %4) #19
  %5 = getelementptr inbounds i8, ptr %0, i64 -8
  %6 = ptrtoint ptr %5 to i64
  store i64 %6, ptr %4, align 8, !tbaa !21
  %7 = getelementptr inbounds nuw i8, ptr %4, i64 8
  store i32 2, ptr %7, align 8, !tbaa !24
  %8 = xor i32 %2, 1
  %9 = load ptr, ptr %1, align 8, !tbaa !13
  %10 = getelementptr inbounds nuw i8, ptr %9, i64 64
  %11 = load ptr, ptr %10, align 8
  %12 = tail call noundef nonnull align 8 dereferenceable(8) ptr %11(ptr noundef nonnull align 8 dereferenceable(8) %1, i32 %8)
  %13 = load ptr, ptr %12, align 8, !tbaa !17
  %14 = icmp eq ptr %13, null
  br i1 %14, label %_ZN6vectorIN3sat7watchedELb1EjE3endEv.exit.i, label %15

15:                                               ; preds = %3
  %16 = getelementptr inbounds i8, ptr %13, i64 -4
  %17 = load i32, ptr %16, align 4, !tbaa !3
  %18 = zext i32 %17 to i64
  br label %_ZN6vectorIN3sat7watchedELb1EjE3endEv.exit.i

_ZN6vectorIN3sat7watchedELb1EjE3endEv.exit.i:     ; preds = %15, %3
  %.0.i.i.i = phi i64 [ %18, %15 ], [ 0, %3 ]
  %19 = getelementptr inbounds nuw %"class.sat::watched", ptr %13, i64 %.0.i.i.i
  %20 = call noundef ptr @_ZSt9__find_ifIPN3sat7watchedEN9__gnu_cxx5__ops16_Iter_equals_valIKS1_EEET_S8_S8_T0_St26random_access_iterator_tag(ptr noundef %13, ptr noundef %19, ptr nonnull align 8 dereferenceable(12) %4)
  %21 = load ptr, ptr %12, align 8, !tbaa !17
  %22 = icmp eq ptr %21, null
  br i1 %22, label %_ZN6vectorIN3sat7watchedELb1EjE3endEv.exit5.i, label %_ZN6vectorIN3sat7watchedELb1EjE3endEv.exit5.thread.i

_ZN6vectorIN3sat7watchedELb1EjE3endEv.exit5.i:    ; preds = %_ZN6vectorIN3sat7watchedELb1EjE3endEv.exit.i
  %.not.i = icmp eq ptr %20, null
  br i1 %.not.i, label %_ZN6vectorIN3sat7watchedELb1EjE5eraseERKS1_.exit, label %_ZN6vectorIN3sat7watchedELb1EjE3endEv.exit.i.i

_ZN6vectorIN3sat7watchedELb1EjE3endEv.exit5.thread.i: ; preds = %_ZN6vectorIN3sat7watchedELb1EjE3endEv.exit.i
  %23 = getelementptr inbounds i8, ptr %21, i64 -4
  %24 = load i32, ptr %23, align 4, !tbaa !3
  %25 = zext i32 %24 to i64
  %26 = getelementptr inbounds nuw %"class.sat::watched", ptr %21, i64 %25
  %.not7.i = icmp eq ptr %20, %26
  br i1 %.not7.i, label %_ZN6vectorIN3sat7watchedELb1EjE5eraseERKS1_.exit, label %_ZN6vectorIN3sat7watchedELb1EjE3endEv.exit.i.i

_ZN6vectorIN3sat7watchedELb1EjE3endEv.exit.i.i:   ; preds = %_ZN6vectorIN3sat7watchedELb1EjE3endEv.exit5.thread.i, %_ZN6vectorIN3sat7watchedELb1EjE3endEv.exit5.i
  %.0.i.i.i.i = phi i64 [ 0, %_ZN6vectorIN3sat7watchedELb1EjE3endEv.exit5.i ], [ %25, %_ZN6vectorIN3sat7watchedELb1EjE3endEv.exit5.thread.i ]
  %27 = getelementptr inbounds nuw %"class.sat::watched", ptr %21, i64 %.0.i.i.i.i
  %.010.i.i = getelementptr inbounds nuw i8, ptr %20, i64 16
  %.not11.i.i = icmp eq ptr %.010.i.i, %27
  br i1 %.not11.i.i, label %_ZN6vectorIN3sat7watchedELb1EjE5eraseEPS1_.exit.i, label %.lr.ph.i.i

.lr.ph.i.i:                                       ; preds = %_ZN6vectorIN3sat7watchedELb1EjE3endEv.exit.i.i, %.lr.ph.i.i
  %.013.i.i = phi ptr [ %.0.i.i, %.lr.ph.i.i ], [ %.010.i.i, %_ZN6vectorIN3sat7watchedELb1EjE3endEv.exit.i.i ]
  %.0912.i.i = phi ptr [ %28, %.lr.ph.i.i ], [ %20, %_ZN6vectorIN3sat7watchedELb1EjE3endEv.exit.i.i ]
  call void @llvm.memcpy.p0.p0.i64(ptr noundef nonnull align 8 dereferenceable(12) %.0912.i.i, ptr noundef nonnull align 8 dereferenceable(12) %.013.i.i, i64 12, i1 false), !tbaa.struct !25
  %28 = getelementptr inbounds nuw i8, ptr %.0912.i.i, i64 16
  %.0.i.i = getelementptr inbounds nuw i8, ptr %.013.i.i, i64 16
  %.not.i.i = icmp eq ptr %.0.i.i, %27
  br i1 %.not.i.i, label %._crit_edge.loopexit.i.i, label %.lr.ph.i.i, !llvm.loop !27

._crit_edge.loopexit.i.i:                         ; preds = %.lr.ph.i.i
  %.pre.i.i = load ptr, ptr %12, align 8, !tbaa !17
  br label %_ZN6vectorIN3sat7watchedELb1EjE5eraseEPS1_.exit.i

_ZN6vectorIN3sat7watchedELb1EjE5eraseEPS1_.exit.i: ; preds = %._crit_edge.loopexit.i.i, %_ZN6vectorIN3sat7watchedELb1EjE3endEv.exit.i.i
  %29 = phi ptr [ %.pre.i.i, %._crit_edge.loopexit.i.i ], [ %21, %_ZN6vectorIN3sat7watchedELb1EjE3endEv.exit.i.i ]
  %30 = getelementptr inbounds i8, ptr %29, i64 -4
  %31 = load i32, ptr %30, align 4, !tbaa !3
  %32 = add i32 %31, -1
  store i32 %32, ptr %30, align 4, !tbaa !3
  br label %_ZN6vectorIN3sat7watchedELb1EjE5eraseERKS1_.exit

_ZN6vectorIN3sat7watchedELb1EjE5eraseERKS1_.exit: ; preds = %_ZN6vectorIN3sat7watchedELb1EjE3endEv.exit5.i, %_ZN6vectorIN3sat7watchedELb1EjE3endEv.exit5.thread.i, %_ZN6vectorIN3sat7watchedELb1EjE5eraseEPS1_.exit.i
  call void @llvm.lifetime.end.p0(i64 16, ptr nonnull %4) #19
  ret void
}